; Function Attrs: mustprogress uwtable
define internal fastcc void @_ZN12_GLOBAL__N_115cmQtAutoMocUicT11IncludeKeyTC2ERKNSt7__cxx1112basic_stringIcSt11char_traitsIcESaIcEEEm(ptr noundef nonnull align 8 dereferenceable(96) %0, ptr noundef nonnull align 8 dereferenceable(32) %1, i64 noundef %2) unnamed_addr #3 align 2 personality ptr @__gxx_personality_v0 {
  %4 = alloca %"class.std::__cxx11::basic_string", align 8
  tail call void @_ZNSt7__cxx1112basic_stringIcSt11char_traitsIcESaIcEEC1ERKS4_(ptr noundef nonnull align 8 dereferenceable(32) %0, ptr noundef nonnull align 8 dereferenceable(32) %1)
  %5 = getelementptr inbounds i8, ptr %0, i64 32
  %6 = tail call { i64, ptr } @_ZNKSt7__cxx1112basic_stringIcSt11char_traitsIcESaIcEEcvSt17basic_string_viewIcS2_EEv(ptr noundef nonnull align 8 dereferenceable(32) %1) #23
  %7 = extractvalue { i64, ptr } %6, 0
  %8 = extractvalue { i64, ptr } %6, 1
  invoke void @_ZN11cmQtAutoGen12SubDirPrefixB5cxx11ESt17basic_string_viewIcSt11char_traitsIcEE(ptr dead_on_unwind nonnull writable sret(%"class.std::__cxx11::basic_string") align 8 %5, i64 %7, ptr %8)
          to label %9 unwind label %15

9:                                                ; preds = %3
  %10 = getelementptr inbounds i8, ptr %0, i64 64
  invoke void @_ZN5cmsys11SystemTools31GetFilenameWithoutLastExtensionERKNSt7__cxx1112basic_stringIcSt11char_traitsIcESaIcEEE(ptr dead_on_unwind nonnull writable sret(%"class.std::__cxx11::basic_string") align 8 %10, ptr noundef nonnull align 8 dereferenceable(32) %1)
          to label %11 unwind label %17

11:                                               ; preds = %9
  %.not = icmp eq i64 %2, 0
  br i1 %.not, label %21, label %12

12:                                               ; preds = %11
  invoke void @_ZNKSt7__cxx1112basic_stringIcSt11char_traitsIcESaIcEE6substrEmm(ptr dead_on_unwind nonnull writable sret(%"class.std::__cxx11::basic_string") align 8 %4, ptr noundef nonnull align 8 dereferenceable(32) %10, i64 noundef %2, i64 noundef -1)
          to label %13 unwind label %19

13:                                               ; preds = %12
  %14 = call noundef nonnull align 8 dereferenceable(32) ptr @_ZNSt7__cxx1112basic_stringIcSt11char_traitsIcESaIcEEaSEOS4_(ptr noundef nonnull align 8 dereferenceable(32) %10, ptr noundef nonnull align 8 dereferenceable(32) %4) #23
  call void @_ZNSt7__cxx1112basic_stringIcSt11char_traitsIcESaIcEED1Ev(ptr noundef nonnull align 8 dereferenceable(32) %4) #23
  br label %21

15:                                               ; preds = %3
  %16 = landingpad { ptr, i32 }
          cleanup
  br label %23

17:                                               ; preds = %9
  %18 = landingpad { ptr, i32 }
          cleanup
  br label %22

19:                                               ; preds = %12
  %20 = landingpad { ptr, i32 }
          cleanup
  call void @_ZNSt7__cxx1112basic_stringIcSt11char_traitsIcESaIcEED1Ev(ptr noundef nonnull align 8 dereferenceable(32) %10) #23
  br label %22

21:                                               ; preds = %13, %11
  ret void

22:                                               ; preds = %19, %17
  %.pn = phi { ptr, i32 } [ %20, %19 ], [ %18, %17 ]
  call void @_ZNSt7__cxx1112basic_stringIcSt11char_traitsIcESaIcEED1Ev(ptr noundef nonnull align 8 dereferenceable(32) %5) #23
  br label %23

23:                                               ; preds = %22, %15
  %.pn.pn = phi { ptr, i32 } [ %.pn, %22 ], [ %16, %15 ]
  call void @_ZNSt7__cxx1112basic_stringIcSt11char_traitsIcESaIcEED1Ev(ptr noundef nonnull align 8 dereferenceable(32) %0) #23
  resume { ptr, i32 } %.pn.pn
}